target datalayout = "e-m:e-p270:32:32-p271:32:32-p272:64:64-i64:64-i128:128-f80:128-n8:16:32:64-S128"
target triple = "x86_64-pc-linux-gnu"

%struct.ParamListInfoData = type { ptr, ptr, ptr, ptr, ptr, ptr, ptr, i32, [0 x %struct.ParamExternData] }
%struct.ParamExternData = type { i64, i8, i16, i32 }

@.str.46 = private unnamed_addr constant [17 x i8] c"Query Parameters\00", align 1

; Function Attrs: nounwind uwtable
define dso_local void @ExplainPropertyText(ptr noundef %0, ptr noundef %1, ptr noundef %2) #0 {
  %4 = alloca ptr, align 8
  %5 = alloca ptr, align 8
  %6 = alloca ptr, align 8
  store ptr %0, ptr %4, align 8
  store ptr %1, ptr %5, align 8
  store ptr %2, ptr %6, align 8
  %7 = load ptr, ptr %4, align 8
  %8 = load ptr, ptr %5, align 8
  %9 = load ptr, ptr %6, align 8
  call void @ExplainProperty(ptr noundef %7, ptr noundef null, ptr noundef %8, i1 noundef zeroext false, ptr noundef %9)
  ret void
}

; Function Attrs: nounwind uwtable
define dso_local void @ExplainQueryParameters(ptr noundef %0, ptr noundef %1, i32 noundef %2) #0 {
  %4 = alloca ptr, align 8
  %5 = alloca ptr, align 8
  %6 = alloca i32, align 4
  %7 = alloca ptr, align 8
  %8 = alloca i32, align 4
  store ptr %0, ptr %4, align 8
  store ptr %1, ptr %5, align 8
  store i32 %2, ptr %6, align 4
  call void @llvm.lifetime.start.p0(i64 8, ptr %7) #10
  %9 = load ptr, ptr %5, align 8
  %10 = icmp eq ptr %9, null
  br i1 %10, label %19, label %11

11:                                               ; preds = %3
  %12 = load ptr, ptr %5, align 8
  %13 = getelementptr inbounds nuw %struct.ParamListInfoData, ptr %12, i32 0, i32 7
  %14 = load i32, ptr %13, align 8
  %15 = icmp sle i32 %14, 0
  br i1 %15, label %19, label %16

16:                                               ; preds = %11
  %17 = load i32, ptr %6, align 4
  %18 = icmp eq i32 %17, 0
  br i1 %18, label %19, label %20

19:                                               ; preds = %16, %11, %3
  store i32 1, ptr %8, align 4
  br label %36

20:                                               ; preds = %16
  %21 = load ptr, ptr %5, align 8
  %22 = load i32, ptr %6, align 4
  %23 = call ptr @BuildParamLogString(ptr noundef %21, ptr noundef null, i32 noundef %22)
  store ptr %23, ptr %7, align 8
  %24 = load ptr, ptr %7, align 8
  %25 = icmp ne ptr %24, null
  br i1 %25, label %26, label %35

26:                                               ; preds = %20
  %27 = load ptr, ptr %7, align 8
  %28 = getelementptr inbounds i8, ptr %27, i64 0
  %29 = load i8, ptr %28, align 1
  %30 = sext i8 %29 to i32
  %31 = icmp ne i32 %30, 0
  br i1 %31, label %32, label %35

32:                                               ; preds = %26
  %33 = load ptr, ptr %7, align 8
  %34 = load ptr, ptr %4, align 8
  call void @ExplainPropertyText(ptr noundef @.str.46, ptr noundef %33, ptr noundef %34)
  br label %35

35:                                               ; preds = %32, %26, %20
  store i32 0, ptr %8, align 4
  br label %36

36:                                               ; preds = %35, %19
  call void @llvm.lifetime.end.p0(i64 8, ptr %7) #10
  %37 = load i32, ptr %8, align 4
  switch i32 %37, label %39 [
    i32 0, label %38
    i32 1, label %38
  ]

38:                                               ; preds = %36, %36
  ret void

39:                                               ; preds = %36
  unreachable
}