; Function Attrs: nounwind uwtable
define dso_local void @ExplainQueryParameters(ptr noundef readonly captures(none) %0, ptr noundef %1, i32 noundef %2) local_unnamed_addr #0 {
  %4 = icmp eq ptr %1, null
  br i1 %4, label %15, label %5

5:                                                ; preds = %3
  %6 = getelementptr inbounds nuw i8, ptr %1, i64 56
  %7 = load i32, ptr %6, align 8
  %8 = icmp slt i32 %7, 1
  %9 = icmp eq i32 %2, 0
  %or.cond = or i1 %9, %8
  br i1 %or.cond, label %15, label %10

10:                                               ; preds = %5
  %11 = tail call ptr @BuildParamLogString(ptr noundef nonnull %1, ptr noundef null, i32 noundef %2) #13
  %.not = icmp eq ptr %11, null
  br i1 %.not, label %15, label %12

12:                                               ; preds = %10
  %13 = load i8, ptr %11, align 1
  %.not11 = icmp eq i8 %13, 0
  br i1 %.not11, label %15, label %14

14:                                               ; preds = %12
  tail call fastcc void @ExplainProperty(ptr noundef nonnull @.str.46, ptr noundef null, ptr noundef nonnull %11, i1 noundef zeroext false, ptr noundef readonly %0)
  br label %15

15:                                               ; preds = %10, %12, %14, %3, %5
  ret void
}